target datalayout = "e-m:e-p270:32:32-p271:32:32-p272:64:64-i64:64-i128:128-f80:128-n8:16:32:64-S128"
target triple = "x86_64-pc-linux-gnu"

%"class.llvm::FoldingSetIteratorImpl" = type { ptr }

; Function Attrs: mustprogress nounwind uwtable
define internal noundef ptr @_ZL10GetNextPtrPv(ptr noundef %0) #0 {
  %2 = alloca ptr, align 8
  %3 = alloca ptr, align 8
  store ptr %0, ptr %3, align 8
  %4 = load ptr, ptr %3, align 8
  %5 = ptrtoint ptr %4 to i64
  %6 = and i64 %5, 1
  %7 = icmp ne i64 %6, 0
  br i1 %7, label %8, label %9

8:                                                ; preds = %1
  store ptr null, ptr %2, align 8
  br label %11

9:                                                ; preds = %1
  %10 = load ptr, ptr %3, align 8
  store ptr %10, ptr %2, align 8
  br label %11

11:                                               ; preds = %9, %8
  %12 = load ptr, ptr %2, align 8
  ret ptr %12
}

; Function Attrs: mustprogress nounwind uwtable
define dso_local void @_ZN4llvm22FoldingSetIteratorImplC2EPPv(ptr noundef nonnull align 8 dereferenceable(8) %0, ptr noundef %1) unnamed_addr #0 align 2 {
  %3 = alloca ptr, align 8
  %4 = alloca ptr, align 8
  store ptr %0, ptr %3, align 8
  store ptr %1, ptr %4, align 8
  %5 = load ptr, ptr %3, align 8
  br label %6

6:                                                ; preds = %24, %2
  %7 = load ptr, ptr %4, align 8
  %8 = load ptr, ptr %7, align 8
  %9 = icmp ne ptr %8, inttoptr (i64 -1 to ptr)
  br i1 %9, label %10, label %22

10:                                               ; preds = %6
  %11 = load ptr, ptr %4, align 8
  %12 = load ptr, ptr %11, align 8
  %13 = icmp ne ptr %12, null
  br i1 %13, label %14, label %20

14:                                               ; preds = %10
  %15 = load ptr, ptr %4, align 8
  %16 = load ptr, ptr %15, align 8
  %17 = call noundef ptr @_ZL10GetNextPtrPv(ptr noundef %16)
  %18 = icmp ne ptr %17, null
  %19 = xor i1 %18, true
  br label %20

20:                                               ; preds = %14, %10
  %21 = phi i1 [ true, %10 ], [ %19, %14 ]
  br label %22

22:                                               ; preds = %20, %6
  %23 = phi i1 [ false, %6 ], [ %21, %20 ]
  br i1 %23, label %24, label %27

24:                                               ; preds = %22
  %25 = load ptr, ptr %4, align 8
  %26 = getelementptr inbounds ptr, ptr %25, i32 1
  store ptr %26, ptr %4, align 8
  br label %6, !llvm.loop !10

27:                                               ; preds = %22
  %28 = load ptr, ptr %4, align 8
  %29 = load ptr, ptr %28, align 8
  %30 = getelementptr inbounds nuw %"class.llvm::FoldingSetIteratorImpl", ptr %5, i32 0, i32 0
  store ptr %29, ptr %30, align 8
  ret void
}