; Function Attrs: mustprogress nofree norecurse nosync nounwind memory(argmem: readwrite) uwtable
define dso_local void @_ZN4llvm22FoldingSetIteratorImplC2EPPv(ptr nocapture noundef nonnull writeonly align 8 dereferenceable(8) %0, ptr nocapture noundef readonly %1) unnamed_addr #11 align 2 {
  br label %3

3:                                                ; preds = %.critedge2, %2
  %.0 = phi ptr [ %1, %2 ], [ %7, %.critedge2 ]
  %4 = load ptr, ptr %.0, align 8
  %magicptr = ptrtoint ptr %4 to i64
  switch i64 %magicptr, label %5 [
    i64 -1, label %.critedge
    i64 0, label %.critedge2
  ]

5:                                                ; preds = %3
  %6 = and i64 %magicptr, 1
  %.not.i = icmp ne i64 %6, 0
  %.not1011 = icmp eq ptr %4, null
  %.not10 = or i1 %.not1011, %.not.i
  br i1 %.not10, label %.critedge2, label %.critedge

.critedge2:                                       ; preds = %3, %5
  %7 = getelementptr inbounds i8, ptr %.0, i64 8
  br label %3, !llvm.loop !10

.critedge:                                        ; preds = %3, %5
  store ptr %4, ptr %0, align 8
  ret void
}